target datalayout = "e-m:e-p270:32:32-p271:32:32-p272:64:64-i64:64-i128:128-f80:128-n8:16:32:64-S128"
target triple = "x86_64-pc-linux-gnu"

%struct._wmem_block_allocator_t = type { ptr, ptr, ptr }
%struct._wmem_block_hdr_t = type { ptr, ptr }
%struct._wmem_block_free_t = type { ptr, ptr }
%struct._wmem_block_chunk_t = type { i32, i32 }

; Function Attrs: nounwind null_pointer_is_valid sspstrong uwtable
define internal void @wmem_block_remove_from_block_list(ptr noundef %0, ptr noundef %1) #5 {
  %3 = alloca ptr, align 8
  %4 = alloca ptr, align 8
  store ptr %0, ptr %3, align 8
  store ptr %1, ptr %4, align 8
  %5 = load ptr, ptr %4, align 8
  %6 = getelementptr inbounds nuw %struct._wmem_block_hdr_t, ptr %5, i32 0, i32 0
  %7 = load ptr, ptr %6, align 8
  %8 = icmp ne ptr %7, null
  br i1 %8, label %9, label %17

9:                                                ; preds = %2
  %10 = load ptr, ptr %4, align 8
  %11 = getelementptr inbounds nuw %struct._wmem_block_hdr_t, ptr %10, i32 0, i32 1
  %12 = load ptr, ptr %11, align 8
  %13 = load ptr, ptr %4, align 8
  %14 = getelementptr inbounds nuw %struct._wmem_block_hdr_t, ptr %13, i32 0, i32 0
  %15 = load ptr, ptr %14, align 8
  %16 = getelementptr inbounds nuw %struct._wmem_block_hdr_t, ptr %15, i32 0, i32 1
  store ptr %12, ptr %16, align 8
  br label %23

17:                                               ; preds = %2
  %18 = load ptr, ptr %4, align 8
  %19 = getelementptr inbounds nuw %struct._wmem_block_hdr_t, ptr %18, i32 0, i32 1
  %20 = load ptr, ptr %19, align 8
  %21 = load ptr, ptr %3, align 8
  %22 = getelementptr inbounds nuw %struct._wmem_block_allocator_t, ptr %21, i32 0, i32 0
  store ptr %20, ptr %22, align 8
  br label %23

23:                                               ; preds = %17, %9
  %24 = load ptr, ptr %4, align 8
  %25 = getelementptr inbounds nuw %struct._wmem_block_hdr_t, ptr %24, i32 0, i32 1
  %26 = load ptr, ptr %25, align 8
  %27 = icmp ne ptr %26, null
  br i1 %27, label %28, label %36

28:                                               ; preds = %23
  %29 = load ptr, ptr %4, align 8
  %30 = getelementptr inbounds nuw %struct._wmem_block_hdr_t, ptr %29, i32 0, i32 0
  %31 = load ptr, ptr %30, align 8
  %32 = load ptr, ptr %4, align 8
  %33 = getelementptr inbounds nuw %struct._wmem_block_hdr_t, ptr %32, i32 0, i32 1
  %34 = load ptr, ptr %33, align 8
  %35 = getelementptr inbounds nuw %struct._wmem_block_hdr_t, ptr %34, i32 0, i32 0
  store ptr %31, ptr %35, align 8
  br label %36

36:                                               ; preds = %28, %23
  ret void
}

; Function Attrs: nounwind null_pointer_is_valid sspstrong uwtable
define internal void @wmem_block_cycle_recycler(ptr noundef %0) #5 {
  %2 = alloca ptr, align 8
  %3 = alloca ptr, align 8
  %4 = alloca ptr, align 8
  %5 = alloca i32, align 4
  store ptr %0, ptr %2, align 8
  call void @llvm.lifetime.start.p0(i64 8, ptr %3) #10
  call void @llvm.lifetime.start.p0(i64 8, ptr %4) #10
  %6 = load ptr, ptr %2, align 8
  %7 = getelementptr inbounds nuw %struct._wmem_block_allocator_t, ptr %6, i32 0, i32 2
  %8 = load ptr, ptr %7, align 8
  store ptr %8, ptr %3, align 8
  %9 = load ptr, ptr %3, align 8
  %10 = icmp eq ptr %9, null
  br i1 %10, label %11, label %12

11:                                               ; preds = %1
  store i32 1, ptr %5, align 4
  br label %75

12:                                               ; preds = %1
  %13 = load ptr, ptr %3, align 8
  %14 = getelementptr i8, ptr %13, i64 16
  store ptr %14, ptr %4, align 8
  %15 = load ptr, ptr %4, align 8
  %16 = getelementptr inbounds nuw %struct._wmem_block_free_t, ptr %15, i32 0, i32 1
  %17 = load ptr, ptr %16, align 8
  %18 = getelementptr inbounds nuw %struct._wmem_block_chunk_t, ptr %17, i32 0, i32 1
  %19 = load i32, ptr %18, align 4
  %20 = lshr i32 %19, 3
  %21 = load ptr, ptr %3, align 8
  %22 = getelementptr inbounds nuw %struct._wmem_block_chunk_t, ptr %21, i32 0, i32 1
  %23 = load i32, ptr %22, align 4
  %24 = lshr i32 %23, 3
  %25 = icmp slt i32 %20, %24
  br i1 %25, label %26, label %68

26:                                               ; preds = %12
  %27 = load ptr, ptr %4, align 8
  %28 = getelementptr inbounds nuw %struct._wmem_block_free_t, ptr %27, i32 0, i32 0
  %29 = load ptr, ptr %28, align 8
  %30 = load ptr, ptr %4, align 8
  %31 = getelementptr inbounds nuw %struct._wmem_block_free_t, ptr %30, i32 0, i32 1
  %32 = load ptr, ptr %31, align 8
  %33 = getelementptr i8, ptr %32, i64 16
  %34 = getelementptr inbounds nuw %struct._wmem_block_free_t, ptr %33, i32 0, i32 0
  store ptr %29, ptr %34, align 8
  %35 = load ptr, ptr %4, align 8
  %36 = getelementptr inbounds nuw %struct._wmem_block_free_t, ptr %35, i32 0, i32 1
  %37 = load ptr, ptr %36, align 8
  %38 = load ptr, ptr %4, align 8
  %39 = getelementptr inbounds nuw %struct._wmem_block_free_t, ptr %38, i32 0, i32 0
  %40 = load ptr, ptr %39, align 8
  %41 = getelementptr i8, ptr %40, i64 16
  %42 = getelementptr inbounds nuw %struct._wmem_block_free_t, ptr %41, i32 0, i32 1
  store ptr %37, ptr %42, align 8
  %43 = load ptr, ptr %4, align 8
  %44 = getelementptr inbounds nuw %struct._wmem_block_free_t, ptr %43, i32 0, i32 1
  %45 = load ptr, ptr %44, align 8
  %46 = load ptr, ptr %4, align 8
  %47 = getelementptr inbounds nuw %struct._wmem_block_free_t, ptr %46, i32 0, i32 0
  store ptr %45, ptr %47, align 8
  %48 = load ptr, ptr %4, align 8
  %49 = getelementptr inbounds nuw %struct._wmem_block_free_t, ptr %48, i32 0, i32 1
  %50 = load ptr, ptr %49, align 8
  %51 = getelementptr i8, ptr %50, i64 16
  %52 = getelementptr inbounds nuw %struct._wmem_block_free_t, ptr %51, i32 0, i32 1
  %53 = load ptr, ptr %52, align 8
  %54 = load ptr, ptr %4, align 8
  %55 = getelementptr inbounds nuw %struct._wmem_block_free_t, ptr %54, i32 0, i32 1
  store ptr %53, ptr %55, align 8
  %56 = load ptr, ptr %3, align 8
  %57 = load ptr, ptr %4, align 8
  %58 = getelementptr inbounds nuw %struct._wmem_block_free_t, ptr %57, i32 0, i32 1
  %59 = load ptr, ptr %58, align 8
  %60 = getelementptr i8, ptr %59, i64 16
  %61 = getelementptr inbounds nuw %struct._wmem_block_free_t, ptr %60, i32 0, i32 0
  store ptr %56, ptr %61, align 8
  %62 = load ptr, ptr %3, align 8
  %63 = load ptr, ptr %4, align 8
  %64 = getelementptr inbounds nuw %struct._wmem_block_free_t, ptr %63, i32 0, i32 0
  %65 = load ptr, ptr %64, align 8
  %66 = getelementptr i8, ptr %65, i64 16
  %67 = getelementptr inbounds nuw %struct._wmem_block_free_t, ptr %66, i32 0, i32 1
  store ptr %62, ptr %67, align 8
  br label %74

68:                                               ; preds = %12
  %69 = load ptr, ptr %4, align 8
  %70 = getelementptr inbounds nuw %struct._wmem_block_free_t, ptr %69, i32 0, i32 1
  %71 = load ptr, ptr %70, align 8
  %72 = load ptr, ptr %2, align 8
  %73 = getelementptr inbounds nuw %struct._wmem_block_allocator_t, ptr %72, i32 0, i32 2
  store ptr %71, ptr %73, align 8
  br label %74

74:                                               ; preds = %68, %26
  store i32 0, ptr %5, align 4
  br label %75

75:                                               ; preds = %74, %11
  call void @llvm.lifetime.end.p0(i64 8, ptr %4) #10
  call void @llvm.lifetime.end.p0(i64 8, ptr %3) #10
  %76 = load i32, ptr %5, align 4
  switch i32 %76, label %78 [
    i32 0, label %77
    i32 1, label %77
  ]

77:                                               ; preds = %75, %75
  ret void

78:                                               ; preds = %75
  unreachable
}

; Function Attrs: null_pointer_is_valid sspstrong uwtable
define internal void @wmem_block_free_jumbo(ptr noundef %0, ptr noundef %1) #0 {
  %3 = alloca ptr, align 8
  %4 = alloca ptr, align 8
  %5 = alloca ptr, align 8
  store ptr %0, ptr %3, align 8
  store ptr %1, ptr %4, align 8
  call void @llvm.lifetime.start.p0(i64 8, ptr %5) #10
  %6 = load ptr, ptr %4, align 8
  %7 = getelementptr i8, ptr %6, i64 -16
  store ptr %7, ptr %5, align 8
  %8 = load ptr, ptr %3, align 8
  %9 = load ptr, ptr %5, align 8
  call void @wmem_block_remove_from_block_list(ptr noundef %8, ptr noundef %9)
  %10 = load ptr, ptr %5, align 8
  call void @wmem_free(ptr noundef null, ptr noundef %10)
  call void @llvm.lifetime.end.p0(i64 8, ptr %5) #10
  ret void
}

; Function Attrs: null_pointer_is_valid sspstrong uwtable
define internal void @wmem_block_free(ptr noundef %0, ptr noundef %1) #0 {
  %3 = alloca ptr, align 8
  %4 = alloca ptr, align 8
  %5 = alloca ptr, align 8
  %6 = alloca ptr, align 8
  %7 = alloca i32, align 4
  store ptr %0, ptr %3, align 8
  store ptr %1, ptr %4, align 8
  call void @llvm.lifetime.start.p0(i64 8, ptr %5) #10
  %8 = load ptr, ptr %3, align 8
  store ptr %8, ptr %5, align 8
  call void @llvm.lifetime.start.p0(i64 8, ptr %6) #10
  %9 = load ptr, ptr %4, align 8
  %10 = getelementptr i8, ptr %9, i64 -16
  store ptr %10, ptr %6, align 8
  %11 = load ptr, ptr %6, align 8
  %12 = getelementptr inbounds nuw %struct._wmem_block_chunk_t, ptr %11, i32 0, i32 1
  %13 = load i32, ptr %12, align 4
  %14 = lshr i32 %13, 2
  %15 = and i32 %14, 1
  %16 = icmp ne i32 %15, 0
  br i1 %16, label %17, label %20

17:                                               ; preds = %2
  %18 = load ptr, ptr %5, align 8
  %19 = load ptr, ptr %6, align 8
  call void @wmem_block_free_jumbo(ptr noundef %18, ptr noundef %19)
  store i32 1, ptr %7, align 4
  br label %29

20:                                               ; preds = %2
  %21 = load ptr, ptr %6, align 8
  %22 = getelementptr inbounds nuw %struct._wmem_block_chunk_t, ptr %21, i32 0, i32 1
  %23 = load i32, ptr %22, align 4
  %24 = and i32 %23, -3
  %25 = or i32 %24, 0
  store i32 %25, ptr %22, align 4
  %26 = load ptr, ptr %5, align 8
  %27 = load ptr, ptr %6, align 8
  call void @wmem_block_merge_free(ptr noundef %26, ptr noundef %27)
  %28 = load ptr, ptr %5, align 8
  call void @wmem_block_cycle_recycler(ptr noundef %28)
  store i32 0, ptr %7, align 4
  br label %29

29:                                               ; preds = %20, %17
  call void @llvm.lifetime.end.p0(i64 8, ptr %6) #10
  call void @llvm.lifetime.end.p0(i64 8, ptr %5) #10
  %30 = load i32, ptr %7, align 4
  switch i32 %30, label %32 [
    i32 0, label %31
    i32 1, label %31
  ]

31:                                               ; preds = %29, %29
  ret void

32:                                               ; preds = %29
  unreachable
}