; Function Attrs: null_pointer_is_valid sspstrong uwtable
define internal void @wmem_block_free(ptr noundef captures(none) %0, ptr noundef %1) #0 {
  %3 = getelementptr i8, ptr %1, i64 -12
  %4 = load i32, ptr %3, align 4
  %5 = and i32 %4, 4
  %.not = icmp eq i32 %5, 0
  br i1 %.not, label %17, label %6

6:                                                ; preds = %2
  %7 = getelementptr i8, ptr %1, i64 -32
  %8 = load ptr, ptr %7, align 8
  %.not.i.i = icmp eq ptr %8, null
  %9 = getelementptr i8, ptr %1, i64 -24
  %10 = load ptr, ptr %9, align 8
  br i1 %.not.i.i, label %13, label %11

11:                                               ; preds = %6
  %12 = getelementptr inbounds nuw i8, ptr %8, i64 8
  store ptr %10, ptr %12, align 8
  br label %14

13:                                               ; preds = %6
  store ptr %10, ptr %0, align 8
  br label %14

14:                                               ; preds = %13, %11
  %.not9.i.i = icmp eq ptr %10, null
  br i1 %.not9.i.i, label %wmem_block_free_jumbo.exit, label %15

15:                                               ; preds = %14
  %16 = load ptr, ptr %7, align 8
  store ptr %16, ptr %10, align 8
  br label %wmem_block_free_jumbo.exit

wmem_block_free_jumbo.exit:                       ; preds = %14, %15
  tail call void @wmem_free(ptr noundef null, ptr noundef %7)
  br label %wmem_block_cycle_recycler.exit

17:                                               ; preds = %2
  %18 = getelementptr i8, ptr %1, i64 -16
  %19 = and i32 %4, -7
  store i32 %19, ptr %3, align 4
  tail call fastcc void @wmem_block_merge_free(ptr noundef %0, ptr noundef %18)
  %20 = getelementptr inbounds nuw i8, ptr %0, i64 16
  %21 = load ptr, ptr %20, align 8
  %22 = icmp eq ptr %21, null
  br i1 %22, label %wmem_block_cycle_recycler.exit, label %23

23:                                               ; preds = %17
  %24 = getelementptr i8, ptr %21, i64 24
  %25 = load ptr, ptr %24, align 8
  %26 = getelementptr inbounds nuw i8, ptr %25, i64 4
  %27 = load i32, ptr %26, align 4
  %28 = lshr i32 %27, 3
  %29 = getelementptr inbounds nuw i8, ptr %21, i64 4
  %30 = load i32, ptr %29, align 4
  %31 = lshr i32 %30, 3
  %32 = icmp samesign ult i32 %28, %31
  br i1 %32, label %33, label %44

33:                                               ; preds = %23
  %34 = getelementptr i8, ptr %21, i64 16
  %35 = load ptr, ptr %34, align 8
  %36 = getelementptr i8, ptr %25, i64 16
  store ptr %35, ptr %36, align 8
  %37 = load ptr, ptr %24, align 8
  %38 = getelementptr i8, ptr %35, i64 24
  store ptr %37, ptr %38, align 8
  store ptr %37, ptr %34, align 8
  %39 = getelementptr i8, ptr %37, i64 24
  %40 = load ptr, ptr %39, align 8
  store ptr %40, ptr %24, align 8
  %41 = getelementptr i8, ptr %40, i64 16
  store ptr %21, ptr %41, align 8
  %42 = load ptr, ptr %34, align 8
  %43 = getelementptr i8, ptr %42, i64 24
  store ptr %21, ptr %43, align 8
  br label %wmem_block_cycle_recycler.exit

44:                                               ; preds = %23
  store ptr %25, ptr %20, align 8
  br label %wmem_block_cycle_recycler.exit

wmem_block_cycle_recycler.exit:                   ; preds = %44, %33, %17, %wmem_block_free_jumbo.exit
  ret void
}